; Function Attrs: mustprogress nounwind uwtable
define hidden void @_ZN14MacroAssembler4jumpE14AddressLiteral8Register(ptr noundef nonnull align 8 dereferenceable(40) %0, ptr noundef %1, i32 %2) local_unnamed_addr #0 align 2 {
  %4 = alloca %class.AddressLiteral, align 8
  %5 = alloca %class.AddressLiteral, align 8
  %6 = load ptr, ptr %1, align 8
  %7 = getelementptr inbounds i8, ptr %6, i64 16
  %8 = load ptr, ptr %7, align 8
  call void %8(ptr noundef nonnull align 8 dereferenceable(20) %1, ptr noundef nonnull align 8 dereferenceable(40) %4) #18
  %9 = getelementptr inbounds i8, ptr %4, i64 40
  %10 = getelementptr inbounds i8, ptr %1, i64 40
  call void @llvm.memcpy.p0.p0.i64(ptr noundef nonnull align 8 dereferenceable(16) %9, ptr noundef nonnull align 8 dereferenceable(16) %10, i64 16, i1 false)
  %11 = call noundef zeroext i1 @_ZN9Assembler9reachableE14AddressLiteral(ptr noundef nonnull align 8 dereferenceable(40) %0, ptr noundef nonnull %4) #18
  br i1 %11, label %12, label %15

12:                                               ; preds = %3
  %13 = getelementptr inbounds i8, ptr %1, i64 48
  %14 = load ptr, ptr %13, align 8
  call void @_ZN9Assembler11jmp_literalEPhRK16RelocationHolder(ptr noundef nonnull align 8 dereferenceable(40) %0, ptr noundef %14, ptr noundef nonnull align 8 dereferenceable(40) %1) #18
  br label %23

15:                                               ; preds = %3
  %16 = load ptr, ptr %1, align 8
  %17 = getelementptr inbounds i8, ptr %16, i64 16
  %18 = load ptr, ptr %17, align 8
  call void %18(ptr noundef nonnull align 8 dereferenceable(20) %1, ptr noundef nonnull align 8 dereferenceable(40) %5) #18
  %19 = getelementptr inbounds i8, ptr %5, i64 40
  call void @llvm.memcpy.p0.p0.i64(ptr noundef nonnull align 8 dereferenceable(16) %19, ptr noundef nonnull align 8 dereferenceable(16) %10, i64 16, i1 false)
  %20 = getelementptr inbounds i8, ptr %5, i64 48
  %21 = load ptr, ptr %20, align 8
  %22 = ptrtoint ptr %21 to i64
  call void @_ZN9Assembler13mov_literal64E8RegisterlRK16RelocationHolder(ptr noundef nonnull align 8 dereferenceable(40) %0, i32 %2, i64 noundef %22, ptr noundef nonnull align 8 dereferenceable(40) %5) #18
  call void @_ZN9Assembler3jmpE8Register(ptr noundef nonnull align 8 dereferenceable(40) %0, i32 %2) #18
  br label %23

23:                                               ; preds = %15, %12
  ret void
}